; ModuleID = 'source-C-CXX/9/885.c'
source_filename = "source-C-CXX/9/885.c"
target datalayout = "e-m:e-p270:32:32-p271:32:32-p272:64:64-i64:64-f80:128-n8:16:32:64-S128"
target triple = "x86_64-pc-linux-gnu"

@.str = private unnamed_addr constant [3 x i8] c"%d\00", align 1

; Function Attrs: nofree nounwind sspstrong uwtable
define dso_local i32 @main() local_unnamed_addr #0 {
  %1 = alloca [25 x i32], align 16
  %2 = alloca [25 x i32], align 16
  %3 = alloca i32, align 4
  %4 = bitcast [25 x i32]* %1 to i8*
  call void @llvm.lifetime.start.p0i8(i64 100, i8* nonnull %4) #5
  call void @llvm.memset.p0i8.i64(i8* noundef nonnull align 16 dereferenceable(100) %4, i8 0, i64 100, i1 false)
  %5 = bitcast [25 x i32]* %2 to i8*
  call void @llvm.lifetime.start.p0i8(i64 100, i8* nonnull %5) #5
  call void @llvm.memset.p0i8.i64(i8* noundef nonnull align 16 dereferenceable(100) %5, i8 0, i64 100, i1 false)
  %6 = bitcast i32* %3 to i8*
  call void @llvm.lifetime.start.p0i8(i64 4, i8* nonnull %6) #5
  %7 = call i32 (i8*, ...) @__isoc99_scanf(i8* getelementptr inbounds ([3 x i8], [3 x i8]* @.str, i64 0, i64 0), i32* nonnull %3)
  %8 = load i32, i32* %3, align 4, !tbaa !5
  %9 = icmp sgt i32 %8, 0
  br i1 %9, label %86, label %210

10:                                               ; preds = %86
  %11 = icmp sgt i32 %91, 0
  br i1 %11, label %12, label %210

12:                                               ; preds = %10
  %13 = zext i32 %91 to i64
  %14 = icmp ult i32 %91, 8
  br i1 %14, label %84, label %15

15:                                               ; preds = %12
  %16 = and i64 %13, 4294967288
  %17 = add nsw i64 %16, -8
  %18 = lshr exact i64 %17, 3
  %19 = add nuw nsw i64 %18, 1
  %20 = and i64 %19, 7
  %21 = icmp ult i64 %17, 56
  br i1 %21, label %69, label %22

22:                                               ; preds = %15
  %23 = and i64 %19, 4611686018427387896
  br label %24

24:                                               ; preds = %24, %22
  %25 = phi i64 [ 0, %22 ], [ %66, %24 ]
  %26 = phi i64 [ %23, %22 ], [ %67, %24 ]
  %27 = getelementptr inbounds [25 x i32], [25 x i32]* %1, i64 0, i64 %25
  %28 = bitcast i32* %27 to <4 x i32>*
  store <4 x i32> <i32 1, i32 1, i32 1, i32 1>, <4 x i32>* %28, align 16, !tbaa !5
  %29 = getelementptr inbounds i32, i32* %27, i64 4
  %30 = bitcast i32* %29 to <4 x i32>*
  store <4 x i32> <i32 1, i32 1, i32 1, i32 1>, <4 x i32>* %30, align 16, !tbaa !5
  %31 = or i64 %25, 8
  %32 = getelementptr inbounds [25 x i32], [25 x i32]* %1, i64 0, i64 %31
  %33 = bitcast i32* %32 to <4 x i32>*
  store <4 x i32> <i32 1, i32 1, i32 1, i32 1>, <4 x i32>* %33, align 16, !tbaa !5
  %34 = getelementptr inbounds i32, i32* %32, i64 4
  %35 = bitcast i32* %34 to <4 x i32>*
  store <4 x i32> <i32 1, i32 1, i32 1, i32 1>, <4 x i32>* %35, align 16, !tbaa !5
  %36 = or i64 %25, 16
  %37 = getelementptr inbounds [25 x i32], [25 x i32]* %1, i64 0, i64 %36
  %38 = bitcast i32* %37 to <4 x i32>*
  store <4 x i32> <i32 1, i32 1, i32 1, i32 1>, <4 x i32>* %38, align 16, !tbaa !5
  %39 = getelementptr inbounds i32, i32* %37, i64 4
  %40 = bitcast i32* %39 to <4 x i32>*
  store <4 x i32> <i32 1, i32 1, i32 1, i32 1>, <4 x i32>* %40, align 16, !tbaa !5
  %41 = or i64 %25, 24
  %42 = getelementptr inbounds [25 x i32], [25 x i32]* %1, i64 0, i64 %41
  %43 = bitcast i32* %42 to <4 x i32>*
  store <4 x i32> <i32 1, i32 1, i32 1, i32 1>, <4 x i32>* %43, align 16, !tbaa !5
  %44 = getelementptr inbounds i32, i32* %42, i64 4
  %45 = bitcast i32* %44 to <4 x i32>*
  store <4 x i32> <i32 1, i32 1, i32 1, i32 1>, <4 x i32>* %45, align 16, !tbaa !5
  %46 = or i64 %25, 32
  %47 = getelementptr inbounds [25 x i32], [25 x i32]* %1, i64 0, i64 %46
  %48 = bitcast i32* %47 to <4 x i32>*
  store <4 x i32> <i32 1, i32 1, i32 1, i32 1>, <4 x i32>* %48, align 16, !tbaa !5
  %49 = getelementptr inbounds i32, i32* %47, i64 4
  %50 = bitcast i32* %49 to <4 x i32>*
  store <4 x i32> <i32 1, i32 1, i32 1, i32 1>, <4 x i32>* %50, align 16, !tbaa !5
  %51 = or i64 %25, 40
  %52 = getelementptr inbounds [25 x i32], [25 x i32]* %1, i64 0, i64 %51
  %53 = bitcast i32* %52 to <4 x i32>*
  store <4 x i32> <i32 1, i32 1, i32 1, i32 1>, <4 x i32>* %53, align 16, !tbaa !5
  %54 = getelementptr inbounds i32, i32* %52, i64 4
  %55 = bitcast i32* %54 to <4 x i32>*
  store <4 x i32> <i32 1, i32 1, i32 1, i32 1>, <4 x i32>* %55, align 16, !tbaa !5
  %56 = or i64 %25, 48
  %57 = getelementptr inbounds [25 x i32], [25 x i32]* %1, i64 0, i64 %56
  %58 = bitcast i32* %57 to <4 x i32>*
  store <4 x i32> <i32 1, i32 1, i32 1, i32 1>, <4 x i32>* %58, align 16, !tbaa !5
  %59 = getelementptr inbounds i32, i32* %57, i64 4
  %60 = bitcast i32* %59 to <4 x i32>*
  store <4 x i32> <i32 1, i32 1, i32 1, i32 1>, <4 x i32>* %60, align 16, !tbaa !5
  %61 = or i64 %25, 56
  %62 = getelementptr inbounds [25 x i32], [25 x i32]* %1, i64 0, i64 %61
  %63 = bitcast i32* %62 to <4 x i32>*
  store <4 x i32> <i32 1, i32 1, i32 1, i32 1>, <4 x i32>* %63, align 16, !tbaa !5
  %64 = getelementptr inbounds i32, i32* %62, i64 4
  %65 = bitcast i32* %64 to <4 x i32>*
  store <4 x i32> <i32 1, i32 1, i32 1, i32 1>, <4 x i32>* %65, align 16, !tbaa !5
  %66 = add nuw i64 %25, 64
  %67 = add i64 %26, -8
  %68 = icmp eq i64 %67, 0
  br i1 %68, label %69, label %24, !llvm.loop !9

69:                                               ; preds = %24, %15
  %70 = phi i64 [ 0, %15 ], [ %66, %24 ]
  %71 = icmp eq i64 %20, 0
  br i1 %71, label %82, label %72

72:                                               ; preds = %69, %72
  %73 = phi i64 [ %79, %72 ], [ %70, %69 ]
  %74 = phi i64 [ %80, %72 ], [ %20, %69 ]
  %75 = getelementptr inbounds [25 x i32], [25 x i32]* %1, i64 0, i64 %73
  %76 = bitcast i32* %75 to <4 x i32>*
  store <4 x i32> <i32 1, i32 1, i32 1, i32 1>, <4 x i32>* %76, align 16, !tbaa !5
  %77 = getelementptr inbounds i32, i32* %75, i64 4
  %78 = bitcast i32* %77 to <4 x i32>*
  store <4 x i32> <i32 1, i32 1, i32 1, i32 1>, <4 x i32>* %78, align 16, !tbaa !5
  %79 = add nuw i64 %73, 8
  %80 = add i64 %74, -1
  %81 = icmp eq i64 %80, 0
  br i1 %81, label %82, label %72, !llvm.loop !12

82:                                               ; preds = %72, %69
  %83 = icmp eq i64 %16, %13
  br i1 %83, label %94, label %84

84:                                               ; preds = %12, %82
  %85 = phi i64 [ 0, %12 ], [ %16, %82 ]
  br label %100

86:                                               ; preds = %0, %86
  %87 = phi i64 [ %90, %86 ], [ 0, %0 ]
  %88 = getelementptr inbounds [25 x i32], [25 x i32]* %2, i64 0, i64 %87
  %89 = call i32 (i8*, ...) @__isoc99_scanf(i8* getelementptr inbounds ([3 x i8], [3 x i8]* @.str, i64 0, i64 0), i32* nonnull %88)
  %90 = add nuw nsw i64 %87, 1
  %91 = load i32, i32* %3, align 4, !tbaa !5
  %92 = sext i32 %91 to i64
  %93 = icmp slt i64 %90, %92
  br i1 %93, label %86, label %10, !llvm.loop !14

94:                                               ; preds = %100, %82
  %95 = icmp sgt i32 %91, 1
  br i1 %95, label %96, label %108

96:                                               ; preds = %94
  %97 = add nsw i32 %91, -2
  %98 = zext i32 %97 to i64
  %99 = zext i32 %91 to i64
  br label %178

100:                                              ; preds = %84, %100
  %101 = phi i64 [ %103, %100 ], [ %85, %84 ]
  %102 = getelementptr inbounds [25 x i32], [25 x i32]* %1, i64 0, i64 %101
  store i32 1, i32* %102, align 4, !tbaa !5
  %103 = add nuw nsw i64 %101, 1
  %104 = icmp eq i64 %103, %13
  br i1 %104, label %94, label %100, !llvm.loop !15

105:                                              ; preds = %197
  %106 = icmp sgt i64 %179, 2
  %107 = add nsw i64 %180, -1
  br i1 %106, label %178, label %108, !llvm.loop !17

108:                                              ; preds = %105, %94
  br i1 %11, label %109, label %210

109:                                              ; preds = %108
  %110 = zext i32 %91 to i64
  %111 = icmp ult i32 %91, 8
  br i1 %111, label %175, label %112

112:                                              ; preds = %109
  %113 = and i64 %13, 4294967288
  %114 = add nsw i64 %113, -8
  %115 = lshr exact i64 %114, 3
  %116 = add nuw nsw i64 %115, 1
  %117 = and i64 %116, 1
  %118 = icmp eq i64 %114, 0
  br i1 %118, label %150, label %119

119:                                              ; preds = %112
  %120 = and i64 %116, 4611686018427387902
  br label %121

121:                                              ; preds = %121, %119
  %122 = phi i64 [ 0, %119 ], [ %147, %121 ]
  %123 = phi <4 x i32> [ <i32 1, i32 1, i32 1, i32 1>, %119 ], [ %145, %121 ]
  %124 = phi <4 x i32> [ <i32 1, i32 1, i32 1, i32 1>, %119 ], [ %146, %121 ]
  %125 = phi i64 [ %120, %119 ], [ %148, %121 ]
  %126 = getelementptr inbounds [25 x i32], [25 x i32]* %1, i64 0, i64 %122
  %127 = bitcast i32* %126 to <4 x i32>*
  %128 = load <4 x i32>, <4 x i32>* %127, align 16, !tbaa !5
  %129 = getelementptr inbounds i32, i32* %126, i64 4
  %130 = bitcast i32* %129 to <4 x i32>*
  %131 = load <4 x i32>, <4 x i32>* %130, align 16, !tbaa !5
  %132 = icmp sgt <4 x i32> %128, %123
  %133 = icmp sgt <4 x i32> %131, %124
  %134 = select <4 x i1> %132, <4 x i32> %128, <4 x i32> %123
  %135 = select <4 x i1> %133, <4 x i32> %131, <4 x i32> %124
  %136 = or i64 %122, 8
  %137 = getelementptr inbounds [25 x i32], [25 x i32]* %1, i64 0, i64 %136
  %138 = bitcast i32* %137 to <4 x i32>*
  %139 = load <4 x i32>, <4 x i32>* %138, align 16, !tbaa !5
  %140 = getelementptr inbounds i32, i32* %137, i64 4
  %141 = bitcast i32* %140 to <4 x i32>*
  %142 = load <4 x i32>, <4 x i32>* %141, align 16, !tbaa !5
  %143 = icmp sgt <4 x i32> %139, %134
  %144 = icmp sgt <4 x i32> %142, %135
  %145 = select <4 x i1> %143, <4 x i32> %139, <4 x i32> %134
  %146 = select <4 x i1> %144, <4 x i32> %142, <4 x i32> %135
  %147 = add nuw i64 %122, 16
  %148 = add i64 %125, -2
  %149 = icmp eq i64 %148, 0
  br i1 %149, label %150, label %121, !llvm.loop !18

150:                                              ; preds = %121, %112
  %151 = phi <4 x i32> [ undef, %112 ], [ %145, %121 ]
  %152 = phi <4 x i32> [ undef, %112 ], [ %146, %121 ]
  %153 = phi i64 [ 0, %112 ], [ %147, %121 ]
  %154 = phi <4 x i32> [ <i32 1, i32 1, i32 1, i32 1>, %112 ], [ %145, %121 ]
  %155 = phi <4 x i32> [ <i32 1, i32 1, i32 1, i32 1>, %112 ], [ %146, %121 ]
  %156 = icmp eq i64 %117, 0
  br i1 %156, label %168, label %157

157:                                              ; preds = %150
  %158 = getelementptr inbounds [25 x i32], [25 x i32]* %1, i64 0, i64 %153
  %159 = bitcast i32* %158 to <4 x i32>*
  %160 = load <4 x i32>, <4 x i32>* %159, align 16, !tbaa !5
  %161 = getelementptr inbounds i32, i32* %158, i64 4
  %162 = bitcast i32* %161 to <4 x i32>*
  %163 = load <4 x i32>, <4 x i32>* %162, align 16, !tbaa !5
  %164 = icmp sgt <4 x i32> %163, %155
  %165 = select <4 x i1> %164, <4 x i32> %163, <4 x i32> %155
  %166 = icmp sgt <4 x i32> %160, %154
  %167 = select <4 x i1> %166, <4 x i32> %160, <4 x i32> %154
  br label %168

168:                                              ; preds = %150, %157
  %169 = phi <4 x i32> [ %151, %150 ], [ %167, %157 ]
  %170 = phi <4 x i32> [ %152, %150 ], [ %165, %157 ]
  %171 = icmp sgt <4 x i32> %169, %170
  %172 = select <4 x i1> %171, <4 x i32> %169, <4 x i32> %170
  %173 = call i32 @llvm.vector.reduce.smax.v4i32(<4 x i32> %172)
  %174 = icmp eq i64 %113, %13
  br i1 %174, label %210, label %175

175:                                              ; preds = %109, %168
  %176 = phi i64 [ 0, %109 ], [ %113, %168 ]
  %177 = phi i32 [ 1, %109 ], [ %173, %168 ]
  br label %201

178:                                              ; preds = %105, %96
  %179 = phi i64 [ %99, %96 ], [ %181, %105 ]
  %180 = phi i64 [ %98, %96 ], [ %107, %105 ]
  %181 = add nsw i64 %179, -1
  %182 = getelementptr inbounds [25 x i32], [25 x i32]* %1, i64 0, i64 %181
  %183 = getelementptr inbounds [25 x i32], [25 x i32]* %2, i64 0, i64 %181
  br label %184

184:                                              ; preds = %178, %197
  %185 = phi i64 [ %180, %178 ], [ %200, %197 ]
  %186 = load i32, i32* %182, align 4, !tbaa !5
  %187 = getelementptr inbounds [25 x i32], [25 x i32]* %1, i64 0, i64 %185
  %188 = load i32, i32* %187, align 4, !tbaa !5
  %189 = icmp slt i32 %186, %188
  br i1 %189, label %197, label %190

190:                                              ; preds = %184
  %191 = getelementptr inbounds [25 x i32], [25 x i32]* %2, i64 0, i64 %185
  %192 = load i32, i32* %191, align 4, !tbaa !5
  %193 = load i32, i32* %183, align 4, !tbaa !5
  %194 = icmp slt i32 %192, %193
  br i1 %194, label %197, label %195

195:                                              ; preds = %190
  %196 = add nsw i32 %186, 1
  store i32 %196, i32* %187, align 4, !tbaa !5
  br label %197

197:                                              ; preds = %184, %190, %195
  %198 = trunc i64 %185 to i32
  %199 = icmp sgt i32 %198, 0
  %200 = add nsw i64 %185, -1
  br i1 %199, label %184, label %105, !llvm.loop !19

201:                                              ; preds = %175, %201
  %202 = phi i64 [ %208, %201 ], [ %176, %175 ]
  %203 = phi i32 [ %207, %201 ], [ %177, %175 ]
  %204 = getelementptr inbounds [25 x i32], [25 x i32]* %1, i64 0, i64 %202
  %205 = load i32, i32* %204, align 4, !tbaa !5
  %206 = icmp sgt i32 %205, %203
  %207 = select i1 %206, i32 %205, i32 %203
  %208 = add nuw nsw i64 %202, 1
  %209 = icmp eq i64 %208, %110
  br i1 %209, label %210, label %201, !llvm.loop !20

210:                                              ; preds = %201, %168, %10, %0, %108
  %211 = phi i32 [ 1, %108 ], [ 1, %0 ], [ 1, %10 ], [ %173, %168 ], [ %207, %201 ]
  %212 = call i32 (i8*, ...) @printf(i8* nonnull dereferenceable(1) getelementptr inbounds ([3 x i8], [3 x i8]* @.str, i64 0, i64 0), i32 %211)
  call void @llvm.lifetime.end.p0i8(i64 4, i8* nonnull %6) #5
  call void @llvm.lifetime.end.p0i8(i64 100, i8* nonnull %5) #5
  call void @llvm.lifetime.end.p0i8(i64 100, i8* nonnull %4) #5
  ret i32 0
}

; Function Attrs: argmemonly mustprogress nofree nosync nounwind willreturn
declare void @llvm.lifetime.start.p0i8(i64 immarg, i8* nocapture) #1

; Function Attrs: argmemonly mustprogress nofree nounwind willreturn writeonly
declare void @llvm.memset.p0i8.i64(i8* nocapture writeonly, i8, i64, i1 immarg) #2

; Function Attrs: nofree nounwind
declare noundef i32 @__isoc99_scanf(i8* nocapture noundef readonly, ...) local_unnamed_addr #3

; Function Attrs: nofree nounwind
declare noundef i32 @printf(i8* nocapture noundef readonly, ...) local_unnamed_addr #3

; Function Attrs: argmemonly mustprogress nofree nosync nounwind willreturn
declare void @llvm.lifetime.end.p0i8(i64 immarg, i8* nocapture) #1

; Function Attrs: nofree nosync nounwind readnone willreturn
declare i32 @llvm.vector.reduce.smax.v4i32(<4 x i32>) #4


!llvm.module.flags = !{!0, !1, !2, !3}
!llvm.ident = !{!4}

!0 = !{i32 1, !"wchar_size", i32 4}
!1 = !{i32 7, !"PIC Level", i32 2}
!2 = !{i32 7, !"PIE Level", i32 2}
!3 = !{i32 7, !"uwtable", i32 1}
!4 = !{!"clang version 13.0.0"}
!5 = !{!6, !6, i64 0}
!6 = !{!"int", !7, i64 0}
!7 = !{!"omnipotent char", !8, i64 0}
!8 = !{!"Simple C/C++ TBAA"}
!9 = distinct !{!9, !10, !11}
!10 = !{!"llvm.loop.mustprogress"}
!11 = !{!"llvm.loop.isvectorized", i32 1}
!12 = distinct !{!12, !13}
!13 = !{!"llvm.loop.unroll.disable"}
!14 = distinct !{!14, !10}
!15 = distinct !{!15, !10, !16, !11}
!16 = !{!"llvm.loop.unroll.runtime.disable"}
!17 = distinct !{!17, !10}
!18 = distinct !{!18, !10, !11}
!19 = distinct !{!19, !10}
!20 = distinct !{!20, !10, !16, !11}
